; Function Attrs: mustprogress nounwind uwtable
define internal fastcc void @_ZN12_GLOBAL__N_111StmtPrinter20VisitCXXNoexceptExprEPN5clang15CXXNoexceptExprE(ptr noundef nonnull align 8 dereferenceable(80) %0, ptr noundef readonly captures(none) %1) unnamed_addr #0 align 2 {
  %3 = load ptr, ptr %0, align 8
  %4 = getelementptr inbounds nuw i8, ptr %3, i64 24
  %5 = load ptr, ptr %4, align 8
  %6 = getelementptr inbounds nuw i8, ptr %3, i64 32
  %7 = load ptr, ptr %6, align 8
  %8 = ptrtoint ptr %5 to i64
  %9 = ptrtoint ptr %7 to i64
  %10 = sub i64 %8, %9
  %11 = icmp ult i64 %10, 9
  br i1 %11, label %12, label %14

12:                                               ; preds = %2
  %13 = tail call noundef nonnull align 8 dereferenceable(48) ptr @_ZN4llvm11raw_ostream5writeEPKcm(ptr noundef nonnull align 8 dereferenceable(48) %3, ptr noundef nonnull @.str.126, i64 noundef 9) #19
  br label %_ZN4llvm11raw_ostreamlsEPKc.exit

14:                                               ; preds = %2
  tail call void @llvm.memcpy.p0.p0.i64(ptr noundef nonnull align 1 dereferenceable(9) %7, ptr noundef nonnull align 1 dereferenceable(9) @.str.126, i64 9, i1 false)
  %15 = load ptr, ptr %6, align 8
  %16 = getelementptr inbounds nuw i8, ptr %15, i64 9
  store ptr %16, ptr %6, align 8
  br label %_ZN4llvm11raw_ostreamlsEPKc.exit

_ZN4llvm11raw_ostreamlsEPKc.exit:                 ; preds = %12, %14
  %17 = getelementptr inbounds nuw i8, ptr %1, i64 16
  %18 = load ptr, ptr %17, align 8
  %.not.i = icmp eq ptr %18, null
  br i1 %.not.i, label %29, label %19

19:                                               ; preds = %_ZN4llvm11raw_ostreamlsEPKc.exit
  %20 = getelementptr inbounds nuw i8, ptr %0, i64 16
  %21 = load ptr, ptr %20, align 8
  %.not.i8 = icmp eq ptr %21, null
  br i1 %.not.i8, label %28, label %22

22:                                               ; preds = %19
  %23 = load ptr, ptr %0, align 8
  %24 = load ptr, ptr %21, align 8
  %25 = getelementptr inbounds nuw i8, ptr %24, i64 16
  %26 = load ptr, ptr %25, align 8
  %27 = tail call noundef zeroext i1 %26(ptr noundef nonnull align 8 dereferenceable(8) %21, ptr noundef nonnull %18, ptr noundef nonnull align 8 dereferenceable(48) %23) #19
  br i1 %27, label %_ZN12_GLOBAL__N_111StmtPrinter9PrintExprEPN5clang4ExprE.exit, label %28

28:                                               ; preds = %22, %19
  tail call fastcc void @_ZN5clang15StmtVisitorBaseISt11add_pointerN12_GLOBAL__N_111StmtPrinterEvJEE5VisitEPNS_4StmtE(ptr noundef nonnull align 8 dereferenceable(80) %0, ptr noundef nonnull %18)
  br label %_ZN12_GLOBAL__N_111StmtPrinter9PrintExprEPN5clang4ExprE.exit

29:                                               ; preds = %_ZN4llvm11raw_ostreamlsEPKc.exit
  %30 = load ptr, ptr %0, align 8
  %31 = getelementptr inbounds nuw i8, ptr %30, i64 24
  %32 = load ptr, ptr %31, align 8
  %33 = getelementptr inbounds nuw i8, ptr %30, i64 32
  %34 = load ptr, ptr %33, align 8
  %35 = ptrtoint ptr %32 to i64
  %36 = ptrtoint ptr %34 to i64
  %37 = sub i64 %35, %36
  %38 = icmp ult i64 %37, 11
  br i1 %38, label %39, label %41

39:                                               ; preds = %29
  %40 = tail call noundef nonnull align 8 dereferenceable(48) ptr @_ZN4llvm11raw_ostream5writeEPKcm(ptr noundef nonnull align 8 dereferenceable(48) %30, ptr noundef nonnull @.str.4, i64 noundef 11) #19
  br label %_ZN12_GLOBAL__N_111StmtPrinter9PrintExprEPN5clang4ExprE.exit

41:                                               ; preds = %29
  tail call void @llvm.memcpy.p0.p0.i64(ptr noundef nonnull align 1 dereferenceable(11) %34, ptr noundef nonnull align 1 dereferenceable(11) @.str.4, i64 11, i1 false)
  %42 = load ptr, ptr %33, align 8
  %43 = getelementptr inbounds nuw i8, ptr %42, i64 11
  store ptr %43, ptr %33, align 8
  br label %_ZN12_GLOBAL__N_111StmtPrinter9PrintExprEPN5clang4ExprE.exit

_ZN12_GLOBAL__N_111StmtPrinter9PrintExprEPN5clang4ExprE.exit: ; preds = %41, %39, %28, %22
  %44 = load ptr, ptr %0, align 8
  %45 = getelementptr inbounds nuw i8, ptr %44, i64 24
  %46 = load ptr, ptr %45, align 8
  %47 = getelementptr inbounds nuw i8, ptr %44, i64 32
  %48 = load ptr, ptr %47, align 8
  %49 = icmp eq ptr %46, %48
  br i1 %49, label %50, label %52

50:                                               ; preds = %_ZN12_GLOBAL__N_111StmtPrinter9PrintExprEPN5clang4ExprE.exit
  %51 = tail call noundef nonnull align 8 dereferenceable(48) ptr @_ZN4llvm11raw_ostream5writeEPKcm(ptr noundef nonnull align 8 dereferenceable(48) %44, ptr noundef nonnull @.str.2, i64 noundef 1) #19
  br label %_ZN4llvm11raw_ostreamlsEPKc.exit4

52:                                               ; preds = %_ZN12_GLOBAL__N_111StmtPrinter9PrintExprEPN5clang4ExprE.exit
  store i8 41, ptr %48, align 1
  %53 = load ptr, ptr %47, align 8
  %54 = getelementptr inbounds nuw i8, ptr %53, i64 1
  store ptr %54, ptr %47, align 8
  br label %_ZN4llvm11raw_ostreamlsEPKc.exit4

_ZN4llvm11raw_ostreamlsEPKc.exit4:                ; preds = %50, %52
  ret void
}